target datalayout = "e-m:e-p270:32:32-p271:32:32-p272:64:64-i64:64-i128:128-f80:128-n8:16:32:64-S128"
target triple = "x86_64-pc-linux-gnu"

; Function Attrs: nounwind uwtable
define internal i32 @aes_xts_stream_final(ptr noundef %0, ptr noundef %1, ptr noundef %2, i64 noundef %3) #0 {
  %5 = alloca i32, align 4
  %6 = alloca ptr, align 8
  %7 = alloca ptr, align 8
  %8 = alloca ptr, align 8
  %9 = alloca i64, align 8
  store ptr %0, ptr %6, align 8, !tbaa !3
  store ptr %1, ptr %7, align 8, !tbaa !7
  store ptr %2, ptr %8, align 8, !tbaa !13
  store i64 %3, ptr %9, align 8, !tbaa !9
  %10 = call i32 @ossl_prov_is_running()
  %11 = icmp ne i32 %10, 0
  br i1 %11, label %13, label %12

12:                                               ; preds = %4
  store i32 0, ptr %5, align 4
  br label %15

13:                                               ; preds = %4
  %14 = load ptr, ptr %8, align 8, !tbaa !13
  store i64 0, ptr %14, align 8, !tbaa !9
  store i32 1, ptr %5, align 4
  br label %15

15:                                               ; preds = %13, %12
  %16 = load i32, ptr %5, align 4
  ret i32 %16
}