; Function Attrs: nounwind uwtable
define internal range(i32 0, 2) i32 @aes_xts_stream_final(ptr readnone captures(none) %0, ptr readnone captures(none) %1, ptr noundef writeonly captures(none) %2, i64 %3) #0 {
  %5 = tail call i32 @ossl_prov_is_running() #4
  %.not = icmp eq i32 %5, 0
  br i1 %.not, label %7, label %6

6:                                                ; preds = %4
  store i64 0, ptr %2, align 8, !tbaa !3
  br label %7

7:                                                ; preds = %4, %6
  %.0 = phi i32 [ 1, %6 ], [ 0, %4 ]
  ret i32 %.0
}